; Function Attrs: mustprogress nofree norecurse nosync nounwind willreturn memory(read, inaccessiblemem: none) uwtable
define hidden ptr @_ZNK12param_descrs14get_param_nameEj(ptr nocapture noundef nonnull readonly align 8 dereferenceable(8) %this, i32 noundef %i) local_unnamed_addr #7 align 2 {
entry:
  %0 = load ptr, ptr %this, align 8
  %m_names.i = getelementptr inbounds i8, ptr %0, i64 24
  %1 = load ptr, ptr %m_names.i, align 8
  %idxprom.i.i = zext i32 %i to i64
  %arrayidx.i.i = getelementptr inbounds %class.symbol, ptr %1, i64 %idxprom.i.i
  %retval.sroa.0.0.copyload.i = load ptr, ptr %arrayidx.i.i, align 8
  ret ptr %retval.sroa.0.0.copyload.i
}